; Function Attrs: nounwind uwtable
define ptr @l_List_forIn_x27_loop___at_Lean_unresolveNameGlobal_unresolveNameCore___spec__1___rarg___lambda__1___boxed(ptr noundef %0, ptr noundef %1, ptr noundef %2, ptr noundef %3) #1 {
  tail call void @lean_inc_heartbeat() #6
  %5 = tail call noalias ptr @mi_malloc_small(i64 noundef 24) #6
  %6 = icmp eq ptr %5, null
  br i1 %6, label %7, label %lean_alloc_ctor.exit.i

7:                                                ; preds = %4
  tail call void @lean_internal_panic_out_of_memory() #7
  unreachable

lean_alloc_ctor.exit.i:                           ; preds = %4
  %8 = getelementptr inbounds nuw i8, ptr %5, i64 4
  store i32 1, ptr %5, align 4, !tbaa !4
  store i32 131096, ptr %8, align 4
  %9 = getelementptr inbounds nuw i8, ptr %5, i64 8
  store ptr %0, ptr %9, align 8, !tbaa !9
  %10 = getelementptr inbounds nuw i8, ptr %5, i64 16
  store ptr %1, ptr %10, align 8, !tbaa !9
  tail call void @lean_inc_heartbeat() #6
  %11 = tail call noalias ptr @mi_malloc_small(i64 noundef 16) #6
  %12 = icmp eq ptr %11, null
  br i1 %12, label %13, label %l_List_forIn_x27_loop___at_Lean_unresolveNameGlobal_unresolveNameCore___spec__1___rarg___lambda__1.exit

13:                                               ; preds = %lean_alloc_ctor.exit.i
  tail call void @lean_internal_panic_out_of_memory() #7
  unreachable

l_List_forIn_x27_loop___at_Lean_unresolveNameGlobal_unresolveNameCore___spec__1___rarg___lambda__1.exit: ; preds = %lean_alloc_ctor.exit.i
  %14 = getelementptr inbounds nuw i8, ptr %11, i64 4
  store i32 1, ptr %11, align 4, !tbaa !4
  store i32 16842768, ptr %14, align 4
  %15 = getelementptr inbounds nuw i8, ptr %11, i64 8
  store ptr %5, ptr %15, align 8, !tbaa !9
  %16 = tail call ptr @lean_apply_2(ptr noundef %2, ptr noundef nonnull inttoptr (i64 1 to ptr), ptr noundef nonnull %11) #6
  %17 = ptrtoint ptr %3 to i64
  %18 = and i64 %17, 1
  %.not = icmp eq i64 %18, 0
  br i1 %.not, label %19, label %lean_dec.exit

19:                                               ; preds = %l_List_forIn_x27_loop___at_Lean_unresolveNameGlobal_unresolveNameCore___spec__1___rarg___lambda__1.exit
  %20 = load i32, ptr %3, align 4, !tbaa !4
  %21 = icmp sgt i32 %20, 1
  br i1 %21, label %22, label %24, !prof !11

22:                                               ; preds = %19
  %23 = add nsw i32 %20, -1
  store i32 %23, ptr %3, align 4, !tbaa !4
  br label %lean_dec.exit

24:                                               ; preds = %19
  %.not.i = icmp eq i32 %20, 0
  br i1 %.not.i, label %lean_dec.exit, label %25

25:                                               ; preds = %24
  tail call void @lean_dec_ref_cold(ptr noundef nonnull %3) #6
  br label %lean_dec.exit

lean_dec.exit:                                    ; preds = %25, %24, %22, %l_List_forIn_x27_loop___at_Lean_unresolveNameGlobal_unresolveNameCore___spec__1___rarg___lambda__1.exit
  ret ptr %16
}